target datalayout = "e-m:e-p270:32:32-p271:32:32-p272:64:64-i64:64-i128:128-f80:128-n8:16:32:64-S128"
target triple = "x86_64-pc-linux-gnu"

%struct.SDL_FColor = type { float, float, float, float }
%struct.SDL_Rect = type { i32, i32, i32, i32 }
%struct.GPU_RenderData = type { ptr, %struct.GPU_Shaders, %struct.GPU_PipelineCache, %struct.anon, %struct.anon.0, %struct.anon.1, %struct.anon.2, [8 x ptr] }
%struct.GPU_Shaders = type { [3 x ptr], [6 x ptr] }
%struct.GPU_PipelineCache = type { ptr }
%struct.anon = type { ptr, i32, i32, i32 }
%struct.anon.0 = type { i32, i32 }
%struct.anon.1 = type { ptr, ptr, i32 }
%struct.anon.2 = type { ptr, ptr, ptr, %struct.SDL_GPUColorTargetInfo, %struct.SDL_GPUViewport, %struct.SDL_Rect, %struct.SDL_FColor, i8, i8 }
%struct.SDL_GPUColorTargetInfo = type { ptr, i32, i32, %struct.SDL_FColor, i32, i32, ptr, i32, i32, i8, i8, i8, i8 }
%struct.SDL_GPUViewport = type { float, float, float, float, float, float }
%struct.SDL_GPUTextureCreateInfo = type { i32, i32, i32, i32, i32, i32, i32, i32, i32 }

; Function Attrs: nounwind uwtable
define internal zeroext i1 @CreateBackbuffer(ptr noundef %0, i32 noundef %1, i32 noundef %2, i32 noundef %3) #0 {
  %5 = alloca i1, align 1
  %6 = alloca ptr, align 8
  %7 = alloca i32, align 4
  %8 = alloca i32, align 4
  %9 = alloca i32, align 4
  %10 = alloca %struct.SDL_GPUTextureCreateInfo, align 4
  %11 = alloca i32, align 4
  store ptr %0, ptr %6, align 8
  store i32 %1, ptr %7, align 4
  store i32 %2, ptr %8, align 4
  store i32 %3, ptr %9, align 4
  call void @llvm.lifetime.start.p0(i64 36, ptr %10) #10
  call void @llvm.memset.p0.i64(ptr align 4 %10, i8 0, i64 36, i1 false)
  %12 = load i32, ptr %7, align 4
  %13 = getelementptr inbounds nuw %struct.SDL_GPUTextureCreateInfo, ptr %10, i32 0, i32 3
  store i32 %12, ptr %13, align 4
  %14 = load i32, ptr %8, align 4
  %15 = getelementptr inbounds nuw %struct.SDL_GPUTextureCreateInfo, ptr %10, i32 0, i32 4
  store i32 %14, ptr %15, align 4
  %16 = load i32, ptr %9, align 4
  %17 = getelementptr inbounds nuw %struct.SDL_GPUTextureCreateInfo, ptr %10, i32 0, i32 1
  store i32 %16, ptr %17, align 4
  %18 = getelementptr inbounds nuw %struct.SDL_GPUTextureCreateInfo, ptr %10, i32 0, i32 5
  store i32 1, ptr %18, align 4
  %19 = getelementptr inbounds nuw %struct.SDL_GPUTextureCreateInfo, ptr %10, i32 0, i32 6
  store i32 1, ptr %19, align 4
  %20 = getelementptr inbounds nuw %struct.SDL_GPUTextureCreateInfo, ptr %10, i32 0, i32 7
  store i32 0, ptr %20, align 4
  %21 = getelementptr inbounds nuw %struct.SDL_GPUTextureCreateInfo, ptr %10, i32 0, i32 2
  store i32 3, ptr %21, align 4
  %22 = load ptr, ptr %6, align 8
  %23 = getelementptr inbounds nuw %struct.GPU_RenderData, ptr %22, i32 0, i32 0
  %24 = load ptr, ptr %23, align 8
  %25 = call ptr @SDL_CreateGPUTexture_REAL(ptr noundef %24, ptr noundef %10)
  %26 = load ptr, ptr %6, align 8
  %27 = getelementptr inbounds nuw %struct.GPU_RenderData, ptr %26, i32 0, i32 3
  %28 = getelementptr inbounds nuw %struct.anon, ptr %27, i32 0, i32 0
  store ptr %25, ptr %28, align 8
  %29 = load i32, ptr %7, align 4
  %30 = load ptr, ptr %6, align 8
  %31 = getelementptr inbounds nuw %struct.GPU_RenderData, ptr %30, i32 0, i32 3
  %32 = getelementptr inbounds nuw %struct.anon, ptr %31, i32 0, i32 2
  store i32 %29, ptr %32, align 4
  %33 = load i32, ptr %8, align 4
  %34 = load ptr, ptr %6, align 8
  %35 = getelementptr inbounds nuw %struct.GPU_RenderData, ptr %34, i32 0, i32 3
  %36 = getelementptr inbounds nuw %struct.anon, ptr %35, i32 0, i32 3
  store i32 %33, ptr %36, align 8
  %37 = load i32, ptr %9, align 4
  %38 = load ptr, ptr %6, align 8
  %39 = getelementptr inbounds nuw %struct.GPU_RenderData, ptr %38, i32 0, i32 3
  %40 = getelementptr inbounds nuw %struct.anon, ptr %39, i32 0, i32 1
  store i32 %37, ptr %40, align 8
  %41 = load ptr, ptr %6, align 8
  %42 = getelementptr inbounds nuw %struct.GPU_RenderData, ptr %41, i32 0, i32 3
  %43 = getelementptr inbounds nuw %struct.anon, ptr %42, i32 0, i32 0
  %44 = load ptr, ptr %43, align 8
  %45 = icmp ne ptr %44, null
  br i1 %45, label %47, label %46

46:                                               ; preds = %4
  store i1 false, ptr %5, align 1
  store i32 1, ptr %11, align 4
  br label %48

47:                                               ; preds = %4
  store i1 true, ptr %5, align 1
  store i32 1, ptr %11, align 4
  br label %48

48:                                               ; preds = %47, %46
  call void @llvm.lifetime.end.p0(i64 36, ptr %10) #10
  %49 = load i1, ptr %5, align 1
  ret i1 %49
}