; Function Attrs: nounwind uwtable
define internal fastcc zeroext i1 @CreateBackbuffer(ptr noundef captures(none) initializes((88, 108)) %0, i32 noundef %1, i32 noundef %2, i32 noundef %3) unnamed_addr #0 {
  %5 = alloca %struct.SDL_GPUTextureCreateInfo, align 4
  call void @llvm.lifetime.start.p0(i64 36, ptr nonnull %5) #11
  call void @llvm.memset.p0.i64(ptr noundef nonnull align 4 dereferenceable(36) %5, i8 0, i64 36, i1 false)
  %6 = getelementptr inbounds nuw i8, ptr %5, i64 12
  store i32 %1, ptr %6, align 4
  %7 = getelementptr inbounds nuw i8, ptr %5, i64 16
  store i32 %2, ptr %7, align 4
  %8 = getelementptr inbounds nuw i8, ptr %5, i64 4
  store i32 %3, ptr %8, align 4
  %9 = getelementptr inbounds nuw i8, ptr %5, i64 20
  store i32 1, ptr %9, align 4
  %10 = getelementptr inbounds nuw i8, ptr %5, i64 24
  store i32 1, ptr %10, align 4
  %11 = getelementptr inbounds nuw i8, ptr %5, i64 8
  store i32 3, ptr %11, align 4
  %12 = load ptr, ptr %0, align 8
  %13 = call ptr @SDL_CreateGPUTexture_REAL(ptr noundef %12, ptr noundef nonnull %5) #11
  %14 = getelementptr inbounds nuw i8, ptr %0, i64 88
  store ptr %13, ptr %14, align 8
  %15 = getelementptr inbounds nuw i8, ptr %0, i64 100
  store i32 %1, ptr %15, align 4
  %16 = getelementptr inbounds nuw i8, ptr %0, i64 104
  store i32 %2, ptr %16, align 8
  %17 = getelementptr inbounds nuw i8, ptr %0, i64 96
  store i32 %3, ptr %17, align 8
  %.not = icmp ne ptr %13, null
  call void @llvm.lifetime.end.p0(i64 36, ptr nonnull %5) #11
  ret i1 %.not
}